ccopy_reg
_reconstructor
p0
(cmessages.config_messages
ServerConfig
p1
c__builtin__
object
p2
Ntp3
Rp4
(dp5
S'log'
p6
(lp7
sS'peers'
p8
(lp9
I2
aI3
asS'poolsize'
p10
I100
sS'currentTerm'
p11
I2
sS'votedFor'
p12
I1
sb.